; Function Attrs: mustprogress nofree norecurse nosync nounwind willreturn memory(none) uwtable
define hidden noundef zeroext i1 @_ZN4cvc58internal6theory11quantifiers8TermUtil13isNonAdditiveENS0_4kind6Kind_tE(i32 noundef %0) local_unnamed_addr #8 align 2 {
  switch i32 %0, label %2 [
    i32 93, label %switch.edge
    i32 24, label %switch.edge
    i32 22, label %switch.edge
    i32 95, label %switch.edge
  ]

2:                                                ; preds = %1
  br label %switch.edge

switch.edge:                                      ; preds = %1, %1, %1, %1, %2
  %3 = phi i1 [ true, %1 ], [ false, %2 ], [ true, %1 ], [ true, %1 ], [ true, %1 ]
  ret i1 %3
}